Certificate:
    Data:
        Version: 3 (0x2)
        Serial Number:
            30:a9:1c:4e:cb:f5:04:8e:46:c9:3b:94:f6:a9:5c:99
        Signature Algorithm: sha256WithRSAEncryption
        Issuer: DC = com, DC = sep, CN = Software Engineering Professionals Root CA
        Validity
            Not Before: Dec  2 16:32:07 2015 GMT
            Not After : Apr  3 15:05:29 2031 GMT
        Subject: DC = com, DC = sep, CN = Software Engineering Professionals Root CA
        Subject Public Key Info:
            Public Key Algorithm: rsaEncryption
                Public-Key: (4096 bit)
                Modulus:
                    00:d1:bc:f8:40:2b:41:6c:5b:7a:8f:14:45:60:d5:
                    42:34:57:62:79:0d:05:b4:b0:cb:a6:6a:41:27:53:
                    f1:c7:f5:55:c6:ac:64:8c:c8:03:b7:7b:7a:e6:9a:
                    42:04:fc:4c:94:6c:ea:68:e6:07:f3:47:05:90:25:
                    a6:64:27:26:61:cc:cd:92:e1:bf:d2:b9:b0:7b:70:
                    79:4f:7a:e9:53:a0:df:3b:31:e0:f7:50:4a:59:5b:
                    0c:dc:87:f9:df:b1:51:0f:aa:79:3a:13:bc:77:02:
                    fa:0a:26:3c:a1:b0:19:f7:08:b0:cb:59:92:64:2c:
                    8d:ce:16:36:38:91:37:46:ea:0b:cc:ba:8b:17:3b:
                    60:ca:88:76:6d:85:c5:cb:9b:e4:ac:f3:8c:6e:14:
                    3b:62:f5:95:1b:3a:fc:9c:7c:2a:0c:83:1b:aa:fc:
                    6b:9f:ac:94:6d:69:61:24:bd:0e:99:08:3d:08:44:
                    e3:33:df:77:1c:99:20:86:d2:9b:a3:95:f9:e9:c3:
                    fe:79:b3:0c:3a:0a:1a:bf:00:92:d1:b3:21:88:c1:
                    50:bb:67:bf:0f:60:f5:71:f7:17:e6:98:05:08:07:
                    35:84:dd:c1:8f:b1:d7:23:5e:e2:d8:9b:21:ae:72:
                    7f:3e:e2:a8:8a:5a:cf:bc:00:7b:31:42:a5:ff:a9:
                    7f:d8:02:71:4a:f2:0d:59:f7:1a:44:ac:b5:1c:0e:
                    44:09:56:e1:60:de:6f:b7:dd:dc:7f:49:6d:c3:68:
                    2b:35:96:c9:59:ef:ee:1e:6c:c1:78:0b:26:5f:82:
                    c9:52:3a:e8:70:a9:2b:c1:2a:ed:8e:f5:09:8c:47:
                    90:a1:49:f7:a0:69:d6:80:2a:b6:8c:f8:8c:e8:81:
                    a6:32:e1:c9:43:57:ea:f1:56:be:23:6f:7c:66:8c:
                    bd:53:28:8a:15:50:e7:2e:8a:46:5a:5b:99:ca:67:
                    dc:2b:74:70:20:f4:d0:bd:4a:a6:1c:1c:9e:3d:2a:
                    64:9a:ac:00:47:7b:32:4c:2c:7c:18:5d:93:2e:37:
                    50:61:89:28:09:b2:ac:e5:64:7f:48:06:a9:1b:31:
                    95:a3:31:94:c9:f3:b9:1e:56:8c:ba:86:58:9e:a6:
                    73:c2:ae:5f:a1:ac:94:af:ee:6f:ee:aa:2b:83:c3:
                    56:ce:ee:f9:a9:08:df:a1:0c:44:0e:7f:7c:aa:5b:
                    62:04:77:3e:dd:15:ef:2f:6d:9b:14:30:01:19:ae:
                    04:5c:89:a9:b8:24:f5:3e:0b:84:50:2d:ae:73:70:
                    5d:1f:e1:4e:79:ff:95:c0:3c:39:a8:40:c5:51:e0:
                    53:ee:13:b9:f1:1f:32:01:27:46:8e:82:a1:90:39:
                    53:44:cd
                Exponent: 65537 (0x10001)
        X509v3 extensions:
            X509v3 Key Usage: 
                Digital Signature, Certificate Sign, CRL Sign
            X509v3 Basic Constraints: critical
                CA:TRUE
            X509v3 Subject Key Identifier: 
                64:EB:8C:D5:78:CA:90:A0:E9:45:F0:53:B2:4B:24:61:D0:19:6C:EE
            1.3.6.1.4.1.311.21.1: 
                .....
            1.3.6.1.4.1.311.21.2: 
                ..l'...n+?7..R........
    Signature Algorithm: sha256WithRSAEncryption
    Signature Value:
        ae:92:2d:2b:74:c1:60:eb:d4:ee:44:dd:e9:72:9c:41:67:80:
        76:44:77:b6:3d:a0:f9:44:1a:b3:2b:5b:40:ed:f9:31:c5:dc:
        ab:16:90:8f:e8:ff:e3:f9:2d:1c:2b:16:5a:68:5e:da:44:5b:
        6e:4c:ff:0a:81:1d:1a:c4:27:9d:2c:3b:ff:95:00:42:c3:a4:
        32:41:39:8a:94:e1:72:fa:64:62:d2:dd:12:96:da:f5:fb:dd:
        11:9c:af:18:14:3a:29:43:15:36:57:b6:3f:fc:8c:61:51:0a:
        5e:7e:77:fe:84:02:37:c6:1c:ba:d5:3b:63:16:c3:19:4a:45:
        ef:45:32:9c:2f:75:7f:0b:22:5e:5b:c4:4d:2f:12:08:d2:82:
        0a:fd:53:e1:28:bb:cc:af:7c:5b:ee:bf:2a:bd:35:85:93:92:
        70:1e:f1:fe:d1:20:e3:1a:f6:b8:33:d2:fe:ab:92:b9:f1:1c:
        af:84:22:6c:7e:69:04:07:9a:56:98:32:1f:98:27:eb:49:08:
        62:f2:f2:bd:62:cd:86:3c:04:59:80:ff:11:25:5e:f9:23:0b:
        45:0b:ec:0d:a7:61:3f:c4:5d:e8:93:5d:61:73:07:cc:a6:14:
        96:ae:13:e2:e8:95:31:c8:49:90:88:f3:a2:da:a4:f9:dd:55:
        5e:ef:b0:78:f5:a0:6e:60:77:c6:b6:64:aa:db:14:77:7f:5e:
        93:6b:76:12:f6:0a:5a:70:b8:04:b3:90:d1:68:25:7d:82:95:
        76:a2:f9:ec:29:f0:da:1e:e7:a5:17:ad:9d:c0:79:2b:61:f7:
        38:4d:2d:4b:fb:9d:b7:08:83:f6:ef:b4:5f:1b:ad:73:8b:fb:
        f1:9c:14:61:7c:3e:35:44:d9:ab:af:3f:a3:f9:7d:71:43:9c:
        9f:57:42:a8:ee:93:97:84:ba:bc:5f:04:bd:10:7e:df:33:34:
        c1:ad:71:64:d5:5a:b7:53:51:d0:d8:4c:8c:dc:bb:5e:c0:35:
        3d:17:68:aa:7d:cd:d0:e3:0c:88:81:87:48:b3:8c:62:a1:1e:
        fd:d7:5e:8d:cc:69:ce:e7:d7:c6:37:38:1f:16:a1:9e:53:15:
        9a:d5:1d:e3:d0:d3:f2:39:7c:48:e3:8b:17:cf:c3:f4:89:6b:
        6e:25:62:a1:9d:9b:d5:ab:d3:3e:df:3e:ba:85:fc:01:41:a4:
        f3:e3:0a:2a:80:53:67:f4:23:92:5f:0e:ab:69:e1:3f:57:ab:
        c5:a4:50:5c:ed:89:1c:40:98:77:50:60:a1:b2:00:f3:fb:f5:
        e6:d8:b2:a5:27:93:9c:d9:96:f7:fe:44:76:e5:61:2b:b6:d5:
        f1:20:19:5a:34:b5:01:3c
-----BEGIN CERTIFICATE-----
MIIFwDCCA6igAwIBAgIQMKkcTsv1BI5GyTuU9qlcmTANBgkqhkiG9w0BAQsFADBf
MRMwEQYKCZImiZPyLGQBGRYDY29tMRMwEQYKCZImiZPyLGQBGRYDc2VwMTMwMQYD
VQQDEypTb2Z0d2FyZSBFbmdpbmVlcmluZyBQcm9mZXNzaW9uYWxzIFJvb3QgQ0Ew
HhcNMTUxMjAyMTYzMjA3WhcNMzEwNDAzMTUwNTI5WjBfMRMwEQYKCZImiZPyLGQB
GRYDY29tMRMwEQYKCZImiZPyLGQBGRYDc2VwMTMwMQYDVQQDEypTb2Z0d2FyZSBF
bmdpbmVlcmluZyBQcm9mZXNzaW9uYWxzIFJvb3QgQ0EwggIiMA0GCSqGSIb3DQEB
AQUAA4ICDwAwggIKAoICAQDRvPhAK0FsW3qPFEVg1UI0V2J5DQW0sMumakEnU/HH
9VXGrGSMyAO3e3rmmkIE/EyUbOpo5gfzRwWQJaZkJyZhzM2S4b/SubB7cHlPeulT
oN87MeD3UEpZWwzch/nfsVEPqnk6E7x3AvoKJjyhsBn3CLDLWZJkLI3OFjY4kTdG
6gvMuosXO2DKiHZthcXLm+Ss84xuFDti9ZUbOvycfCoMgxuq/GufrJRtaWEkvQ6Z
CD0IROMz33ccmSCG0pujlfnpw/55sww6Chq/AJLRsyGIwVC7Z78PYPVx9xfmmAUI
BzWE3cGPsdcjXuLYmyGucn8+4qiKWs+8AHsxQqX/qX/YAnFK8g1Z9xpErLUcDkQJ
VuFg3m+33dx/SW3DaCs1lslZ7+4ebMF4CyZfgslSOuhwqSvBKu2O9QmMR5ChSfeg
adaAKraM+IzogaYy4clDV+rxVr4jb3xmjL1TKIoVUOcuikZaW5nKZ9wrdHAg9NC9
SqYcHJ49KmSarABHezJMLHwYXZMuN1BhiSgJsqzlZH9IBqkbMZWjMZTJ87keVoy6
hliepnPCrl+hrJSv7m/uqiuDw1bO7vmpCN+hDEQOf3yqW2IEdz7dFe8vbZsUMAEZ
rgRciam4JPU+C4RQLa5zcF0f4U55/5XAPDmoQMVR4FPuE7nxHzIBJ0aOgqGQOVNE
zQIDAQABo3gwdjALBgNVHQ8EBAMCAYYwDwYDVR0TAQH/BAUwAwEB/zAdBgNVHQ4E
FgQUZOuM1XjKkKDpRfBTskskYdAZbO4wEgYJKwYBBAGCNxUBBAUCAwIABDAjBgkr
BgEEAYI3FQIEFgQUbCcOnxhuKz83A/VS4hP886/wubQwDQYJKoZIhvcNAQELBQAD
ggIBAK6SLSt0wWDr1O5E3elynEFngHZEd7Y9oPlEGrMrW0Dt+THF3KsWkI/o/+P5
LRwrFlpoXtpEW25M/wqBHRrEJ50sO/+VAELDpDJBOYqU4XL6ZGLS3RKW2vX73RGc
rxgUOilDFTZXtj/8jGFRCl5+d/6EAjfGHLrVO2MWwxlKRe9FMpwvdX8LIl5bxE0v
EgjSggr9U+Eou8yvfFvuvyq9NYWTknAe8f7RIOMa9rgz0v6rkrnxHK+EImx+aQQH
mlaYMh+YJ+tJCGLy8r1izYY8BFmA/xElXvkjC0UL7A2nYT/EXeiTXWFzB8ymFJau
E+LolTHISZCI86LapPndVV7vsHj1oG5gd8a2ZKrbFHd/XpNrdhL2ClpwuASzkNFo
JX2ClXai+ewp8Noe56UXrZ3AeSth9zhNLUv7nbcIg/bvtF8brXOL+/GcFGF8PjVE
2auvP6P5fXFDnJ9XQqjuk5eEurxfBL0Qft8zNMGtcWTVWrdTUdDYTIzcu17ANT0X
aKp9zdDjDIiBh0izjGKhHv3XXo3Mac7n18Y3OB8WoZ5TFZrVHePQ0/I5fEjjixfP
w/SJa24lYqGdm9Wr0z7fPrqF/AFBpPPjCiqAU2f0I5JfDqtp4T9Xq8WkUFztiRxA
mHdQYKGyAPP79ebYsqUnk5zZlvf+RHblYSu21fEgGVo0tQE8
-----END CERTIFICATE-----
